target datalayout = "e-m:e-p270:32:32-p271:32:32-p272:64:64-i64:64-i128:128-f80:128-n8:16:32:64-S128"
target triple = "x86_64-pc-linux-gnu"

%"struct.pkpy::Dict" = type { ptr, i32, i32, i32, i32, i32, i32, ptr, ptr }
%"struct.pkpy::Dict::Item" = type { ptr, ptr }
%"struct.pkpy::Dict::ItemNode" = type { i32, i32 }
%"struct.pkpy::Tuple" = type <{ ptr, [3 x ptr], i32, [4 x i8] }>
%"class.std::__cxx11::basic_string" = type { %"struct.std::__cxx11::basic_string<char>::_Alloc_hider", i64, %union.anon.0 }
%"struct.std::__cxx11::basic_string<char>::_Alloc_hider" = type { ptr }
%union.anon.0 = type { i64, [8 x i8] }
%"class.std::allocator" = type { i8 }

@.str = private unnamed_addr constant [108 x i8] c"generated/home/dtcxzyw/WorkSpace/Projects/compilers/llvm-opt-benchmark/bench/pocketpy/pocketpy/src/dict.cpp\00", align 1
@.str.1 = private unnamed_addr constant [2 x i8] c":\00", align 1
@.str.2 = private unnamed_addr constant [16 x i8] c" FATAL_ERROR()!\00", align 1
@_ZTISt13runtime_error = external constant ptr

; Function Attrs: mustprogress uwtable
define linkonce_odr void @_ZStplIcSt11char_traitsIcESaIcEENSt7__cxx1112basic_stringIT_T0_T1_EEOS8_PKS5_(ptr dead_on_unwind noalias writable sret(%"class.std::__cxx11::basic_string") align 8 %0, ptr noundef nonnull align 8 dereferenceable(32) %1, ptr noundef %2) #7 comdat {
  %4 = alloca ptr, align 8
  %5 = alloca ptr, align 8
  %6 = alloca ptr, align 8
  store ptr %0, ptr %4, align 8
  store ptr %1, ptr %5, align 8
  store ptr %2, ptr %6, align 8
  %7 = load ptr, ptr %5, align 8
  %8 = load ptr, ptr %6, align 8
  %9 = call noundef nonnull align 8 dereferenceable(32) ptr @_ZNSt7__cxx1112basic_stringIcSt11char_traitsIcESaIcEE6appendEPKc(ptr noundef nonnull align 8 dereferenceable(32) %7, ptr noundef %8)
  call void @_ZNSt7__cxx1112basic_stringIcSt11char_traitsIcESaIcEEC1EOS4_(ptr noundef nonnull align 8 dereferenceable(32) %0, ptr noundef nonnull align 8 dereferenceable(32) %9) #3
  ret void
}

; Function Attrs: mustprogress uwtable
define linkonce_odr void @_ZStplIcSt11char_traitsIcESaIcEENSt7__cxx1112basic_stringIT_T0_T1_EEPKS5_OS8_(ptr dead_on_unwind noalias writable sret(%"class.std::__cxx11::basic_string") align 8 %0, ptr noundef %1, ptr noundef nonnull align 8 dereferenceable(32) %2) #7 comdat {
  %4 = alloca ptr, align 8
  %5 = alloca ptr, align 8
  %6 = alloca ptr, align 8
  store ptr %0, ptr %4, align 8
  store ptr %1, ptr %5, align 8
  store ptr %2, ptr %6, align 8
  %7 = load ptr, ptr %6, align 8
  %8 = load ptr, ptr %5, align 8
  %9 = call noundef nonnull align 8 dereferenceable(32) ptr @_ZNSt7__cxx1112basic_stringIcSt11char_traitsIcESaIcEE6insertEmPKc(ptr noundef nonnull align 8 dereferenceable(32) %7, i64 noundef 0, ptr noundef %8)
  call void @_ZNSt7__cxx1112basic_stringIcSt11char_traitsIcESaIcEEC1EOS4_(ptr noundef nonnull align 8 dereferenceable(32) %0, ptr noundef nonnull align 8 dereferenceable(32) %9) #3
  ret void
}

; Function Attrs: mustprogress nounwind uwtable
define linkonce_odr noundef nonnull align 8 dereferenceable(8) ptr @_ZN4pkpy5TupleixEi(ptr noundef nonnull align 8 dereferenceable(36) %0, i32 noundef %1) #4 comdat align 2 {
  %3 = alloca ptr, align 8
  %4 = alloca i32, align 4
  store ptr %0, ptr %3, align 8
  store i32 %1, ptr %4, align 4
  %5 = load ptr, ptr %3, align 8
  %6 = getelementptr inbounds %"struct.pkpy::Tuple", ptr %5, i32 0, i32 0
  %7 = load ptr, ptr %6, align 8
  %8 = load i32, ptr %4, align 4
  %9 = sext i32 %8 to i64
  %10 = getelementptr inbounds ptr, ptr %7, i64 %9
  ret ptr %10
}

; Function Attrs: mustprogress uwtable
define void @_ZNK4pkpy4Dict4keysEv(ptr dead_on_unwind noalias writable sret(%"struct.pkpy::Tuple") align 8 %0, ptr noundef nonnull align 8 dereferenceable(48) %1) #7 align 2 personality ptr @__gxx_personality_v0 {
  %3 = alloca ptr, align 8
  %4 = alloca ptr, align 8
  %5 = alloca i1, align 1
  %6 = alloca i32, align 4
  %7 = alloca i32, align 4
  %8 = alloca ptr, align 8
  %9 = alloca i32, align 4
  %10 = alloca %"class.std::__cxx11::basic_string", align 8
  %11 = alloca %"class.std::__cxx11::basic_string", align 8
  %12 = alloca %"class.std::__cxx11::basic_string", align 8
  %13 = alloca %"class.std::__cxx11::basic_string", align 8
  %14 = alloca %"class.std::allocator", align 1
  %15 = alloca %"class.std::__cxx11::basic_string", align 8
  %16 = alloca i1, align 1
  store ptr %0, ptr %3, align 8
  store ptr %1, ptr %4, align 8
  %17 = load ptr, ptr %4, align 8
  store i1 false, ptr %5, align 1
  %18 = getelementptr inbounds %"struct.pkpy::Dict", ptr %17, i32 0, i32 3
  %19 = load i32, ptr %18, align 8
  call void @_ZN4pkpy5TupleC1Ei(ptr noundef nonnull align 8 dereferenceable(36) %0, i32 noundef %19)
  %20 = getelementptr inbounds %"struct.pkpy::Dict", ptr %17, i32 0, i32 5
  %21 = load i32, ptr %20, align 8
  store i32 %21, ptr %6, align 4
  store i32 0, ptr %7, align 4
  br label %22

22:                                               ; preds = %36, %2
  %23 = load i32, ptr %6, align 4
  %24 = icmp ne i32 %23, -1
  br i1 %24, label %25, label %48

25:                                               ; preds = %22
  %26 = getelementptr inbounds %"struct.pkpy::Dict", ptr %17, i32 0, i32 7
  %27 = load ptr, ptr %26, align 8
  %28 = load i32, ptr %6, align 4
  %29 = sext i32 %28 to i64
  %30 = getelementptr inbounds %"struct.pkpy::Dict::Item", ptr %27, i64 %29
  %31 = getelementptr inbounds %"struct.pkpy::Dict::Item", ptr %30, i32 0, i32 0
  %32 = load ptr, ptr %31, align 8
  %33 = load i32, ptr %7, align 4
  %34 = add nsw i32 %33, 1
  store i32 %34, ptr %7, align 4
  %35 = invoke noundef nonnull align 8 dereferenceable(8) ptr @_ZN4pkpy5TupleixEi(ptr noundef nonnull align 8 dereferenceable(36) %0, i32 noundef %33)
          to label %36 unwind label %44

36:                                               ; preds = %25
  store ptr %32, ptr %35, align 8
  %37 = getelementptr inbounds %"struct.pkpy::Dict", ptr %17, i32 0, i32 8
  %38 = load ptr, ptr %37, align 8
  %39 = load i32, ptr %6, align 4
  %40 = sext i32 %39 to i64
  %41 = getelementptr inbounds %"struct.pkpy::Dict::ItemNode", ptr %38, i64 %40
  %42 = getelementptr inbounds %"struct.pkpy::Dict::ItemNode", ptr %41, i32 0, i32 1
  %43 = load i32, ptr %42, align 4
  store i32 %43, ptr %6, align 4
  br label %22, !llvm.loop !7

44:                                               ; preds = %25
  %45 = landingpad { ptr, i32 }
          cleanup
  %46 = extractvalue { ptr, i32 } %45, 0
  store ptr %46, ptr %8, align 8
  %47 = extractvalue { ptr, i32 } %45, 1
  store i32 %47, ptr %9, align 4
  br label %91

48:                                               ; preds = %22
  %49 = load i32, ptr %7, align 4
  %50 = getelementptr inbounds %"struct.pkpy::Dict", ptr %17, i32 0, i32 3
  %51 = load i32, ptr %50, align 8
  %52 = icmp eq i32 %49, %51
  br i1 %52, label %87, label %53

53:                                               ; preds = %48
  store i1 true, ptr %16, align 1
  %54 = call ptr @__cxa_allocate_exception(i64 16) #3
  call void @_ZNSaIcEC1Ev(ptr noundef nonnull align 1 dereferenceable(1) %14) #3
  invoke void @_ZNSt7__cxx1112basic_stringIcSt11char_traitsIcESaIcEEC2IS3_EEPKcRKS3_(ptr noundef nonnull align 8 dereferenceable(32) %13, ptr noundef @.str.1, ptr noundef nonnull align 1 dereferenceable(1) %14)
          to label %55 unwind label %60

55:                                               ; preds = %53
  invoke void @_ZStplIcSt11char_traitsIcESaIcEENSt7__cxx1112basic_stringIT_T0_T1_EEPKS5_OS8_(ptr dead_on_unwind writable sret(%"class.std::__cxx11::basic_string") align 8 %12, ptr noundef @.str, ptr noundef nonnull align 8 dereferenceable(32) %13)
          to label %56 unwind label %64

56:                                               ; preds = %55
  call void @_ZNSt7__cxx119to_stringEi(ptr dead_on_unwind writable sret(%"class.std::__cxx11::basic_string") align 8 %15, i32 noundef 145) #3
  invoke void @_ZStplIcSt11char_traitsIcESaIcEENSt7__cxx1112basic_stringIT_T0_T1_EEOS8_S9_(ptr dead_on_unwind writable sret(%"class.std::__cxx11::basic_string") align 8 %11, ptr noundef nonnull align 8 dereferenceable(32) %12, ptr noundef nonnull align 8 dereferenceable(32) %15)
          to label %57 unwind label %68

57:                                               ; preds = %56
  invoke void @_ZStplIcSt11char_traitsIcESaIcEENSt7__cxx1112basic_stringIT_T0_T1_EEOS8_PKS5_(ptr dead_on_unwind writable sret(%"class.std::__cxx11::basic_string") align 8 %10, ptr noundef nonnull align 8 dereferenceable(32) %11, ptr noundef @.str.2)
          to label %58 unwind label %72

58:                                               ; preds = %57
  invoke void @_ZNSt13runtime_errorC1ERKNSt7__cxx1112basic_stringIcSt11char_traitsIcESaIcEEE(ptr noundef nonnull align 8 dereferenceable(16) %54, ptr noundef nonnull align 8 dereferenceable(32) %10)
          to label %59 unwind label %76

59:                                               ; preds = %58
  store i1 false, ptr %16, align 1
  invoke void @__cxa_throw(ptr %54, ptr @_ZTISt13runtime_error, ptr @_ZNSt13runtime_errorD1Ev) #11
          to label %97 unwind label %76

60:                                               ; preds = %53
  %61 = landingpad { ptr, i32 }
          cleanup
  %62 = extractvalue { ptr, i32 } %61, 0
  store ptr %62, ptr %8, align 8
  %63 = extractvalue { ptr, i32 } %61, 1
  store i32 %63, ptr %9, align 4
  br label %83

64:                                               ; preds = %55
  %65 = landingpad { ptr, i32 }
          cleanup
  %66 = extractvalue { ptr, i32 } %65, 0
  store ptr %66, ptr %8, align 8
  %67 = extractvalue { ptr, i32 } %65, 1
  store i32 %67, ptr %9, align 4
  br label %82

68:                                               ; preds = %56
  %69 = landingpad { ptr, i32 }
          cleanup
  %70 = extractvalue { ptr, i32 } %69, 0
  store ptr %70, ptr %8, align 8
  %71 = extractvalue { ptr, i32 } %69, 1
  store i32 %71, ptr %9, align 4
  br label %81

72:                                               ; preds = %57
  %73 = landingpad { ptr, i32 }
          cleanup
  %74 = extractvalue { ptr, i32 } %73, 0
  store ptr %74, ptr %8, align 8
  %75 = extractvalue { ptr, i32 } %73, 1
  store i32 %75, ptr %9, align 4
  br label %80

76:                                               ; preds = %59, %58
  %77 = landingpad { ptr, i32 }
          cleanup
  %78 = extractvalue { ptr, i32 } %77, 0
  store ptr %78, ptr %8, align 8
  %79 = extractvalue { ptr, i32 } %77, 1
  store i32 %79, ptr %9, align 4
  call void @_ZNSt7__cxx1112basic_stringIcSt11char_traitsIcESaIcEED1Ev(ptr noundef nonnull align 8 dereferenceable(32) %10) #3
  br label %80

80:                                               ; preds = %76, %72
  call void @_ZNSt7__cxx1112basic_stringIcSt11char_traitsIcESaIcEED1Ev(ptr noundef nonnull align 8 dereferenceable(32) %11) #3
  br label %81

81:                                               ; preds = %80, %68
  call void @_ZNSt7__cxx1112basic_stringIcSt11char_traitsIcESaIcEED1Ev(ptr noundef nonnull align 8 dereferenceable(32) %15) #3
  call void @_ZNSt7__cxx1112basic_stringIcSt11char_traitsIcESaIcEED1Ev(ptr noundef nonnull align 8 dereferenceable(32) %12) #3
  br label %82

82:                                               ; preds = %81, %64
  call void @_ZNSt7__cxx1112basic_stringIcSt11char_traitsIcESaIcEED1Ev(ptr noundef nonnull align 8 dereferenceable(32) %13) #3
  br label %83

83:                                               ; preds = %82, %60
  call void @_ZNSaIcED1Ev(ptr noundef nonnull align 1 dereferenceable(1) %14) #3
  %84 = load i1, ptr %16, align 1
  br i1 %84, label %85, label %86

85:                                               ; preds = %83
  call void @__cxa_free_exception(ptr %54) #3
  br label %86

86:                                               ; preds = %85, %83
  br label %91

87:                                               ; preds = %48
  store i1 true, ptr %5, align 1
  %88 = load i1, ptr %5, align 1
  br i1 %88, label %90, label %89

89:                                               ; preds = %87
  call void @_ZN4pkpy5TupleD1Ev(ptr noundef nonnull align 8 dereferenceable(36) %0) #3
  br label %90

90:                                               ; preds = %89, %87
  ret void

91:                                               ; preds = %86, %44
  call void @_ZN4pkpy5TupleD1Ev(ptr noundef nonnull align 8 dereferenceable(36) %0) #3
  br label %92

92:                                               ; preds = %91
  %93 = load ptr, ptr %8, align 8
  %94 = load i32, ptr %9, align 4
  %95 = insertvalue { ptr, i32 } poison, ptr %93, 0
  %96 = insertvalue { ptr, i32 } %95, i32 %94, 1
  resume { ptr, i32 } %96

97:                                               ; preds = %59
  unreachable
}